target datalayout = "e-m:e-p270:32:32-p271:32:32-p272:64:64-i64:64-i128:128-f80:128-n8:16:32:64-S128"
target triple = "x86_64-pc-linux-gnu"

%class.btVector3 = type { [4 x float] }
%class.btAlignedObjectArray.2 = type <{ [4 x i8], i32, i32, [4 x i8], ptr, i8, [7 x i8] }>
%class.btDeformableMultiBodyDynamicsWorld = type { %class.btMultiBodyDynamicsWorld, ptr, %class.btAlignedObjectArray.24, i32, i8, i8, i8, %struct.btSoftBodyWorldInfo, float, i32, i8, i8, i8, ptr, ptr }
%class.btMultiBodyDynamicsWorld = type { %class.btDiscreteDynamicsWorld.base, [4 x i8], %class.btAlignedObjectArray.14, %class.btAlignedObjectArray.16, %class.btAlignedObjectArray.16, ptr, ptr, %class.btAlignedObjectArray.18, %class.btAlignedObjectArray.2, %class.btAlignedObjectArray.18, %class.btAlignedObjectArray.2, %class.btAlignedObjectArray.20, %class.btAlignedObjectArray.2, %class.btAlignedObjectArray.22 }
%class.btDiscreteDynamicsWorld.base = type <{ %class.btDynamicsWorld, %class.btAlignedObjectArray.6, ptr, ptr, ptr, %class.btAlignedObjectArray.6, %class.btAlignedObjectArray.8, %class.btVector3, float, float, i8, i8, i8, i8, [4 x i8], %class.btAlignedObjectArray.10, i32, i8, [3 x i8], %class.btAlignedObjectArray.12, %class.btSpinMutex }>
%class.btDynamicsWorld = type { %class.btCollisionWorld.base, ptr, ptr, ptr, %struct.btContactSolverInfo }
%class.btCollisionWorld.base = type <{ ptr, %class.btAlignedObjectArray.4, ptr, %struct.btDispatcherInfo, ptr, ptr, i8 }>
%class.btAlignedObjectArray.4 = type <{ [4 x i8], i32, i32, [4 x i8], ptr, i8, [7 x i8] }>
%struct.btDispatcherInfo = type <{ float, i32, i32, float, i8, [7 x i8], ptr, i8, i8, i8, i8, float, i8, [3 x i8], float, i8, [7 x i8] }>
%struct.btContactSolverInfo = type { %struct.btContactSolverInfoData }
%struct.btContactSolverInfoData = type { float, float, float, float, float, i32, float, float, float, float, float, float, float, float, float, float, i32, float, float, float, float, float, i32, i32, i32, float, float, float, float, i8, i8, i32, i32 }
%class.btAlignedObjectArray.6 = type <{ [4 x i8], i32, i32, [4 x i8], ptr, i8, [7 x i8] }>
%class.btAlignedObjectArray.8 = type <{ [4 x i8], i32, i32, [4 x i8], ptr, i8, [7 x i8] }>
%class.btAlignedObjectArray.10 = type <{ [4 x i8], i32, i32, [4 x i8], ptr, i8, [7 x i8] }>
%class.btAlignedObjectArray.12 = type <{ [4 x i8], i32, i32, [4 x i8], ptr, i8, [7 x i8] }>
%class.btSpinMutex = type { i32 }
%class.btAlignedObjectArray.14 = type <{ [4 x i8], i32, i32, [4 x i8], ptr, i8, [7 x i8] }>
%class.btAlignedObjectArray.16 = type <{ [4 x i8], i32, i32, [4 x i8], ptr, i8, [7 x i8] }>
%class.btAlignedObjectArray.18 = type <{ [4 x i8], i32, i32, [4 x i8], ptr, i8, [7 x i8] }>
%class.btAlignedObjectArray.20 = type <{ [4 x i8], i32, i32, [4 x i8], ptr, i8, [7 x i8] }>
%class.btAlignedObjectArray.22 = type <{ [4 x i8], i32, i32, [4 x i8], ptr, i8, [7 x i8] }>
%class.btAlignedObjectArray.24 = type <{ [4 x i8], i32, i32, [4 x i8], ptr, i8, [7 x i8] }>
%struct.btSoftBodyWorldInfo = type { float, float, float, float, %class.btVector3, ptr, ptr, %class.btVector3, %struct.btSparseSdf }
%struct.btSparseSdf = type { %class.btAlignedObjectArray.26, float, float, i32, i32, i32, i32, i32, [4 x i8] }
%class.btAlignedObjectArray.26 = type <{ [4 x i8], i32, i32, [4 x i8], ptr, i8, [7 x i8] }>
%class.btDeformableBodySolver = type <{ %class.btSoftBodySolver.base, i32, %class.btAlignedObjectArray.2, %class.btAlignedObjectArray.2, %class.btAlignedObjectArray.2, %class.btAlignedObjectArray.2, %class.btAlignedObjectArray.24, %class.btAlignedObjectArray.2, float, [4 x i8], %class.btConjugateGradient, %class.btConjugateResidual, i8, [3 x i8], i32, float, i8, i8, [2 x i8], ptr, i8, [7 x i8] }>
%class.btSoftBodySolver.base = type <{ ptr, i32, i32, float }>
%class.btConjugateGradient = type { %class.btKrylovSolver, %class.btAlignedObjectArray.2, %class.btAlignedObjectArray.2, %class.btAlignedObjectArray.2, %class.btAlignedObjectArray.2 }
%class.btKrylovSolver = type { ptr, i32, float }
%class.btConjugateResidual = type <{ %class.btKrylovSolver, %class.btAlignedObjectArray.2, %class.btAlignedObjectArray.2, %class.btAlignedObjectArray.2, %class.btAlignedObjectArray.2, %class.btAlignedObjectArray.2, %class.btAlignedObjectArray.2, float, [4 x i8] }>
%class.btCollisionWorld = type <{ ptr, %class.btAlignedObjectArray.4, ptr, %struct.btDispatcherInfo, ptr, ptr, i8, [7 x i8] }>

; Function Attrs: mustprogress nounwind uwtable
define linkonce_odr dso_local noundef nonnull align 4 dereferenceable(128) ptr @_ZN15btDynamicsWorld13getSolverInfoEv(ptr noundef nonnull align 8 dereferenceable(280) %0) #1 comdat align 2 {
  %2 = alloca ptr, align 8
  store ptr %0, ptr %2, align 8, !tbaa !464
  %3 = load ptr, ptr %2, align 8
  %4 = getelementptr inbounds nuw %class.btDynamicsWorld, ptr %3, i32 0, i32 4
  ret ptr %4
}

; Function Attrs: mustprogress nounwind uwtable
define linkonce_odr dso_local noundef ptr @_ZN16btCollisionWorld14getDebugDrawerEv(ptr noundef nonnull align 8 dereferenceable(121) %0) unnamed_addr #1 comdat align 2 {
  %2 = alloca ptr, align 8
  store ptr %0, ptr %2, align 8, !tbaa !423
  %3 = load ptr, ptr %2, align 8
  %4 = getelementptr inbounds nuw %class.btCollisionWorld, ptr %3, i32 0, i32 5
  %5 = load ptr, ptr %4, align 8, !tbaa !403
  ret ptr %5
}

; Function Attrs: mustprogress nounwind uwtable
define linkonce_odr dso_local noundef nonnull align 8 dereferenceable(49) ptr @_ZN16btCollisionWorld15getDispatchInfoEv(ptr noundef nonnull align 8 dereferenceable(121) %0) #1 comdat align 2 {
  %2 = alloca ptr, align 8
  store ptr %0, ptr %2, align 8, !tbaa !423
  %3 = load ptr, ptr %2, align 8
  %4 = getelementptr inbounds nuw %class.btCollisionWorld, ptr %3, i32 0, i32 3
  ret ptr %4
}

; Function Attrs: mustprogress uwtable
define dso_local void @_ZN34btDeformableMultiBodyDynamicsWorld12reinitializeEf(ptr noundef nonnull align 8 dereferenceable(1056) %0, float noundef %1) #7 align 2 {
  %3 = alloca ptr, align 8
  %4 = alloca float, align 4
  %5 = alloca ptr, align 8
  store ptr %0, ptr %3, align 8, !tbaa !58
  store float %1, ptr %4, align 4, !tbaa !12
  %6 = load ptr, ptr %3, align 8
  %7 = load float, ptr %4, align 4, !tbaa !12
  %8 = getelementptr inbounds nuw %class.btDeformableMultiBodyDynamicsWorld, ptr %6, i32 0, i32 8
  %9 = load float, ptr %8, align 8, !tbaa !136
  %10 = fadd float %9, %7
  store float %10, ptr %8, align 8, !tbaa !136
  %11 = getelementptr inbounds nuw %class.btDeformableMultiBodyDynamicsWorld, ptr %6, i32 0, i32 1
  %12 = load ptr, ptr %11, align 8, !tbaa !70
  %13 = getelementptr inbounds nuw %class.btDeformableMultiBodyDynamicsWorld, ptr %6, i32 0, i32 10
  %14 = load i8, ptr %13, align 8, !tbaa !137, !range !178, !noundef !179
  %15 = trunc i8 %14 to i1
  call void @_ZN22btDeformableBodySolver11setImplicitEb(ptr noundef nonnull align 8 dereferenceable(609) %12, i1 noundef zeroext %15)
  %16 = getelementptr inbounds nuw %class.btDeformableMultiBodyDynamicsWorld, ptr %6, i32 0, i32 1
  %17 = load ptr, ptr %16, align 8, !tbaa !70
  %18 = getelementptr inbounds nuw %class.btDeformableMultiBodyDynamicsWorld, ptr %6, i32 0, i32 11
  %19 = load i8, ptr %18, align 1, !tbaa !138, !range !178, !noundef !179
  %20 = trunc i8 %19 to i1
  call void @_ZN22btDeformableBodySolver13setLineSearchEb(ptr noundef nonnull align 8 dereferenceable(609) %17, i1 noundef zeroext %20)
  %21 = getelementptr inbounds nuw %class.btDeformableMultiBodyDynamicsWorld, ptr %6, i32 0, i32 1
  %22 = load ptr, ptr %21, align 8, !tbaa !70
  %23 = getelementptr inbounds nuw %class.btDeformableMultiBodyDynamicsWorld, ptr %6, i32 0, i32 2
  %24 = load float, ptr %4, align 4, !tbaa !12
  %25 = load ptr, ptr %22, align 8, !tbaa !51
  %26 = getelementptr inbounds ptr, ptr %25, i64 18
  %27 = load ptr, ptr %26, align 8
  call void %27(ptr noundef nonnull align 8 dereferenceable(609) %22, ptr noundef nonnull align 8 dereferenceable(25) %23, float noundef %24)
  call void @llvm.lifetime.start.p0(i64 8, ptr %5) #4
  %28 = call noundef nonnull align 8 dereferenceable(49) ptr @_ZN16btCollisionWorld15getDispatchInfoEv(ptr noundef nonnull align 8 dereferenceable(121) %6)
  store ptr %28, ptr %5, align 8, !tbaa !180
  %29 = load float, ptr %4, align 4, !tbaa !12
  %30 = load ptr, ptr %5, align 8, !tbaa !180
  %31 = getelementptr inbounds nuw %struct.btDispatcherInfo, ptr %30, i32 0, i32 0
  store float %29, ptr %31, align 8, !tbaa !182
  %32 = load ptr, ptr %5, align 8, !tbaa !180
  %33 = getelementptr inbounds nuw %struct.btDispatcherInfo, ptr %32, i32 0, i32 1
  store i32 0, ptr %33, align 4, !tbaa !183
  %34 = call noundef ptr @_ZN16btCollisionWorld14getDebugDrawerEv(ptr noundef nonnull align 8 dereferenceable(121) %6)
  %35 = load ptr, ptr %5, align 8, !tbaa !180
  %36 = getelementptr inbounds nuw %struct.btDispatcherInfo, ptr %35, i32 0, i32 6
  store ptr %34, ptr %36, align 8, !tbaa !184
  %37 = load float, ptr %4, align 4, !tbaa !12
  %38 = call noundef nonnull align 4 dereferenceable(128) ptr @_ZN15btDynamicsWorld13getSolverInfoEv(ptr noundef nonnull align 8 dereferenceable(280) %6)
  %39 = getelementptr inbounds nuw %struct.btContactSolverInfoData, ptr %38, i32 0, i32 3
  store float %37, ptr %39, align 4, !tbaa !185
  %40 = getelementptr inbounds nuw %class.btDeformableMultiBodyDynamicsWorld, ptr %6, i32 0, i32 12
  %41 = load i8, ptr %40, align 2, !tbaa !139, !range !178, !noundef !179
  %42 = trunc i8 %41 to i1
  br i1 %42, label %43, label %57

43:                                               ; preds = %2
  %44 = getelementptr inbounds nuw %class.btDeformableMultiBodyDynamicsWorld, ptr %6, i32 0, i32 1
  %45 = load ptr, ptr %44, align 8, !tbaa !70
  %46 = getelementptr inbounds nuw %class.btDeformableBodySolver, ptr %45, i32 0, i32 20
  store i8 1, ptr %46, align 8, !tbaa !186
  %47 = getelementptr inbounds nuw %class.btDeformableMultiBodyDynamicsWorld, ptr %6, i32 0, i32 1
  %48 = load ptr, ptr %47, align 8, !tbaa !70
  %49 = load ptr, ptr %48, align 8, !tbaa !51
  %50 = getelementptr inbounds ptr, ptr %49, i64 24
  %51 = load ptr, ptr %50, align 8
  call void %51(ptr noundef nonnull align 8 dereferenceable(609) %48, i1 noundef zeroext true)
  %52 = getelementptr inbounds nuw %class.btDeformableMultiBodyDynamicsWorld, ptr %6, i32 0, i32 1
  %53 = load ptr, ptr %52, align 8, !tbaa !70
  %54 = load ptr, ptr %53, align 8, !tbaa !51
  %55 = getelementptr inbounds ptr, ptr %54, i64 25
  %56 = load ptr, ptr %55, align 8
  call void %56(ptr noundef nonnull align 8 dereferenceable(609) %53, i32 noundef 0)
  br label %71

57:                                               ; preds = %2
  %58 = getelementptr inbounds nuw %class.btDeformableMultiBodyDynamicsWorld, ptr %6, i32 0, i32 1
  %59 = load ptr, ptr %58, align 8, !tbaa !70
  %60 = getelementptr inbounds nuw %class.btDeformableBodySolver, ptr %59, i32 0, i32 20
  store i8 0, ptr %60, align 8, !tbaa !186
  %61 = getelementptr inbounds nuw %class.btDeformableMultiBodyDynamicsWorld, ptr %6, i32 0, i32 1
  %62 = load ptr, ptr %61, align 8, !tbaa !70
  %63 = load ptr, ptr %62, align 8, !tbaa !51
  %64 = getelementptr inbounds ptr, ptr %63, i64 24
  %65 = load ptr, ptr %64, align 8
  call void %65(ptr noundef nonnull align 8 dereferenceable(609) %62, i1 noundef zeroext false)
  %66 = getelementptr inbounds nuw %class.btDeformableMultiBodyDynamicsWorld, ptr %6, i32 0, i32 1
  %67 = load ptr, ptr %66, align 8, !tbaa !70
  %68 = load ptr, ptr %67, align 8, !tbaa !51
  %69 = getelementptr inbounds ptr, ptr %68, i64 25
  %70 = load ptr, ptr %69, align 8
  call void %70(ptr noundef nonnull align 8 dereferenceable(609) %67, i32 noundef 1)
  br label %71

71:                                               ; preds = %57, %43
  call void @llvm.lifetime.end.p0(i64 8, ptr %5) #4
  ret void
}