; Function Attrs: mustprogress uwtable
define dso_local void @_ZN34btDeformableMultiBodyDynamicsWorld12reinitializeEf(ptr noundef nonnull align 8 dereferenceable(1056) %0, float noundef %1) local_unnamed_addr #4 align 2 {
  %3 = getelementptr inbounds nuw i8, ptr %0, i64 1024
  %4 = load float, ptr %3, align 8, !tbaa !175
  %5 = fadd float %1, %4
  store float %5, ptr %3, align 8, !tbaa !175
  %6 = getelementptr inbounds nuw i8, ptr %0, i64 848
  %7 = load ptr, ptr %6, align 8, !tbaa !81
  %8 = getelementptr inbounds nuw i8, ptr %0, i64 1032
  %9 = load i8, ptr %8, align 8, !tbaa !176, !range !32, !noundef !33
  %10 = trunc nuw i8 %9 to i1
  tail call void @_ZN22btDeformableBodySolver11setImplicitEb(ptr noundef nonnull align 8 dereferenceable(609) %7, i1 noundef zeroext %10)
  %11 = load ptr, ptr %6, align 8, !tbaa !81
  %12 = getelementptr inbounds nuw i8, ptr %0, i64 1033
  %13 = load i8, ptr %12, align 1, !tbaa !177, !range !32, !noundef !33
  %14 = trunc nuw i8 %13 to i1
  tail call void @_ZN22btDeformableBodySolver13setLineSearchEb(ptr noundef nonnull align 8 dereferenceable(609) %11, i1 noundef zeroext %14)
  %15 = load ptr, ptr %6, align 8, !tbaa !81
  %16 = getelementptr inbounds nuw i8, ptr %0, i64 856
  %17 = load ptr, ptr %15, align 8, !tbaa !50
  %18 = getelementptr inbounds nuw i8, ptr %17, i64 144
  %19 = load ptr, ptr %18, align 8
  tail call void %19(ptr noundef nonnull align 8 dereferenceable(609) %15, ptr noundef nonnull align 8 dereferenceable(25) %16, float noundef %1)
  %20 = getelementptr inbounds nuw i8, ptr %0, i64 48
  store float %1, ptr %20, align 8, !tbaa !219
  %21 = getelementptr inbounds nuw i8, ptr %0, i64 52
  store i32 0, ptr %21, align 4, !tbaa !220
  %22 = getelementptr inbounds nuw i8, ptr %0, i64 112
  %23 = load ptr, ptr %22, align 8, !tbaa !221
  %24 = getelementptr inbounds nuw i8, ptr %0, i64 72
  store ptr %23, ptr %24, align 8, !tbaa !222
  %25 = getelementptr inbounds nuw i8, ptr %0, i64 164
  store float %1, ptr %25, align 4, !tbaa !223
  %26 = getelementptr inbounds nuw i8, ptr %0, i64 1034
  %27 = load i8, ptr %26, align 2, !tbaa !178, !range !32, !noundef !33
  %28 = trunc nuw i8 %27 to i1
  %29 = load ptr, ptr %6, align 8, !tbaa !81
  %30 = getelementptr inbounds nuw i8, ptr %29, i64 608
  %not. = xor i1 %28, true
  %.18 = zext i1 %not. to i32
  store i8 %27, ptr %30, align 8, !tbaa !224
  %31 = load ptr, ptr %29, align 8, !tbaa !50
  %32 = getelementptr inbounds nuw i8, ptr %31, i64 192
  %33 = load ptr, ptr %32, align 8
  tail call void %33(ptr noundef nonnull align 8 dereferenceable(609) %29, i1 noundef zeroext %28)
  %34 = load ptr, ptr %6, align 8, !tbaa !81
  %35 = load ptr, ptr %34, align 8, !tbaa !50
  %36 = getelementptr inbounds nuw i8, ptr %35, i64 200
  %37 = load ptr, ptr %36, align 8
  tail call void %37(ptr noundef nonnull align 8 dereferenceable(609) %34, i32 noundef %.18)
  ret void
}